target datalayout = "e-m:e-p270:32:32-p271:32:32-p272:64:64-i64:64-i128:128-f80:128-n8:16:32:64-S128"
target triple = "x86_64-pc-linux-gnu"

%struct.RBasic = type { i64, i64 }
%union.anon.22 = type { double }
%union.anon.21 = type { double }
%struct.RFloat = type { %struct.RBasic, double }

; Function Attrs: inlinehint nounwind sspstrong uwtable
define internal i64 @RUBY_BIT_ROTR(i64 noundef %0, i32 noundef %1) #4 {
  %3 = alloca i64, align 8
  %4 = alloca i32, align 4
  store i64 %0, ptr %3, align 8, !tbaa !26
  store i32 %1, ptr %4, align 4, !tbaa !19
  %5 = load i64, ptr %3, align 8, !tbaa !26
  %6 = load i32, ptr %4, align 4, !tbaa !19
  %7 = sext i32 %6 to i64
  %8 = call i64 @llvm.fshr.i64(i64 %5, i64 %5, i64 %7)
  ret i64 %8
}

; Function Attrs: inlinehint nounwind sspstrong uwtable
define internal double @rb_float_noflonum_value(i64 noundef %0) #4 {
  %2 = alloca i64, align 8
  store i64 %0, ptr %2, align 8, !tbaa !26
  %3 = load i64, ptr %2, align 8, !tbaa !26
  %4 = inttoptr i64 %3 to ptr
  %5 = getelementptr inbounds nuw %struct.RFloat, ptr %4, i32 0, i32 1
  %6 = load double, ptr %5, align 8, !tbaa !101
  ret double %6
}

; Function Attrs: inlinehint nounwind sspstrong uwtable
define internal double @rb_float_flonum_value(i64 noundef %0) #4 {
  %2 = alloca double, align 8
  %3 = alloca i64, align 8
  %4 = alloca %union.anon.21, align 8
  %5 = alloca i64, align 8
  store i64 %0, ptr %3, align 8, !tbaa !26
  %6 = load i64, ptr %3, align 8, !tbaa !26
  %7 = icmp ne i64 %6, -9223372036854775806
  br i1 %7, label %8, label %18

8:                                                ; preds = %1
  call void @llvm.lifetime.start.p0(i64 8, ptr %4) #24
  call void @llvm.lifetime.start.p0(i64 8, ptr %5) #24
  %9 = load i64, ptr %3, align 8, !tbaa !26
  %10 = lshr i64 %9, 63
  store i64 %10, ptr %5, align 8, !tbaa !26
  %11 = load i64, ptr %5, align 8, !tbaa !26
  %12 = sub i64 2, %11
  %13 = load i64, ptr %3, align 8, !tbaa !26
  %14 = and i64 %13, -4
  %15 = or i64 %12, %14
  %16 = call i64 @RUBY_BIT_ROTR(i64 noundef %15, i32 noundef 3)
  store i64 %16, ptr %4, align 8, !tbaa !50
  %17 = load double, ptr %4, align 8, !tbaa !50
  store double %17, ptr %2, align 8
  call void @llvm.lifetime.end.p0(i64 8, ptr %5) #24
  call void @llvm.lifetime.end.p0(i64 8, ptr %4) #24
  br label %19

18:                                               ; preds = %1
  store double 0.000000e+00, ptr %2, align 8
  br label %19

19:                                               ; preds = %18, %8
  %20 = load double, ptr %2, align 8
  ret double %20
}

; Function Attrs: inlinehint nounwind sspstrong willreturn memory(none) uwtable
define internal zeroext i1 @RB_IMMEDIATE_P(i64 noundef %0) #8 {
  %2 = alloca i64, align 8
  store i64 %0, ptr %2, align 8, !tbaa !26
  %3 = load i64, ptr %2, align 8, !tbaa !26
  %4 = and i64 %3, 7
  %5 = icmp ne i64 %4, 0
  ret i1 %5
}

; Function Attrs: inlinehint nounwind sspstrong uwtable
define internal double @rb_float_value_inline(i64 noundef %0) #4 {
  %2 = alloca double, align 8
  %3 = alloca i64, align 8
  store i64 %0, ptr %3, align 8, !tbaa !26
  %4 = load i64, ptr %3, align 8, !tbaa !26
  %5 = call zeroext i1 @RB_FLONUM_P(i64 noundef %4) #28
  br i1 %5, label %6, label %9

6:                                                ; preds = %1
  %7 = load i64, ptr %3, align 8, !tbaa !26
  %8 = call double @rb_float_flonum_value(i64 noundef %7)
  store double %8, ptr %2, align 8
  br label %12

9:                                                ; preds = %1
  %10 = load i64, ptr %3, align 8, !tbaa !26
  %11 = call double @rb_float_noflonum_value(i64 noundef %10)
  store double %11, ptr %2, align 8
  br label %12

12:                                               ; preds = %9, %6
  %13 = load double, ptr %2, align 8
  ret double %13
}

; Function Attrs: inlinehint nounwind sspstrong willreturn memory(read) uwtable
define internal i32 @RB_BUILTIN_TYPE(i64 noundef %0) #6 {
  %2 = alloca i64, align 8
  %3 = alloca i64, align 8
  store i64 %0, ptr %2, align 8, !tbaa !26
  call void @llvm.lifetime.start.p0(i64 8, ptr %3) #24
  %4 = load i64, ptr %2, align 8, !tbaa !26
  %5 = inttoptr i64 %4 to ptr
  %6 = getelementptr inbounds nuw %struct.RBasic, ptr %5, i32 0, i32 0
  %7 = load i64, ptr %6, align 8, !tbaa !91
  %8 = and i64 %7, 31
  store i64 %8, ptr %3, align 8, !tbaa !26
  %9 = load i64, ptr %3, align 8, !tbaa !26
  %10 = trunc i64 %9 to i32
  call void @llvm.lifetime.end.p0(i64 8, ptr %3) #24
  ret i32 %10
}

; Function Attrs: inlinehint nounwind sspstrong willreturn memory(none) uwtable
define internal zeroext i1 @RB_SPECIAL_CONST_P(i64 noundef %0) #8 {
  %2 = alloca i64, align 8
  store i64 %0, ptr %2, align 8, !tbaa !26
  %3 = load i64, ptr %2, align 8, !tbaa !26
  %4 = icmp eq i64 %3, 0
  br i1 %4, label %8, label %5

5:                                                ; preds = %1
  %6 = load i64, ptr %2, align 8, !tbaa !26
  %7 = call zeroext i1 @RB_IMMEDIATE_P(i64 noundef %6) #28
  br label %8

8:                                                ; preds = %5, %1
  %9 = phi i1 [ true, %1 ], [ %7, %5 ]
  ret i1 %9
}

; Function Attrs: inlinehint nounwind sspstrong willreturn memory(none) uwtable
define internal zeroext i1 @RB_FLONUM_P(i64 noundef %0) #8 {
  %2 = alloca i64, align 8
  store i64 %0, ptr %2, align 8, !tbaa !26
  %3 = load i64, ptr %2, align 8, !tbaa !26
  %4 = and i64 %3, 3
  %5 = icmp eq i64 %4, 2
  ret i1 %5
}

; Function Attrs: inlinehint nounwind sspstrong uwtable
define internal i64 @RUBY_BIT_ROTL(i64 noundef %0, i32 noundef %1) #4 {
  %3 = alloca i64, align 8
  %4 = alloca i32, align 4
  store i64 %0, ptr %3, align 8, !tbaa !26
  store i32 %1, ptr %4, align 4, !tbaa !19
  %5 = load i64, ptr %3, align 8, !tbaa !26
  %6 = load i32, ptr %4, align 4, !tbaa !19
  %7 = sext i32 %6 to i64
  %8 = call i64 @llvm.fshl.i64(i64 %5, i64 %5, i64 %7)
  ret i64 %8
}

; Function Attrs: inlinehint nounwind sspstrong uwtable
define internal double @float_value(i64 noundef %0) #4 {
  %2 = alloca i64, align 8
  %3 = alloca double, align 8
  store i64 %0, ptr %2, align 8, !tbaa !26
  call void @llvm.lifetime.start.p0(i64 8, ptr %3) #24
  %4 = load i64, ptr %2, align 8, !tbaa !26
  %5 = call double @rb_float_value_inline(i64 noundef %4)
  store double %5, ptr %3, align 8, !tbaa !47
  %6 = load double, ptr %3, align 8, !tbaa !47
  %7 = call i1 @llvm.is.fpclass.f64(double %6, i32 504)
  br i1 %7, label %9, label %8

8:                                                ; preds = %1
  call void @domain_error() #27
  unreachable

9:                                                ; preds = %1
  %10 = load double, ptr %3, align 8, !tbaa !47
  call void @llvm.lifetime.end.p0(i64 8, ptr %3) #24
  ret double %10
}

; Function Attrs: inlinehint nounwind sspstrong willreturn memory(read) uwtable
define internal zeroext i1 @RB_FLOAT_TYPE_P(i64 noundef %0) #6 {
  %2 = alloca i1, align 1
  %3 = alloca i64, align 8
  store i64 %0, ptr %3, align 8, !tbaa !26
  %4 = load i64, ptr %3, align 8, !tbaa !26
  %5 = call zeroext i1 @RB_FLONUM_P(i64 noundef %4) #28
  br i1 %5, label %6, label %7

6:                                                ; preds = %1
  store i1 true, ptr %2, align 1
  br label %15

7:                                                ; preds = %1
  %8 = load i64, ptr %3, align 8, !tbaa !26
  %9 = call zeroext i1 @RB_SPECIAL_CONST_P(i64 noundef %8) #28
  br i1 %9, label %10, label %11

10:                                               ; preds = %7
  store i1 false, ptr %2, align 1
  br label %15

11:                                               ; preds = %7
  %12 = load i64, ptr %3, align 8, !tbaa !26
  %13 = call i32 @RB_BUILTIN_TYPE(i64 noundef %12) #26
  %14 = icmp eq i32 %13, 4
  store i1 %14, ptr %2, align 1
  br label %15

15:                                               ; preds = %11, %10, %6
  %16 = load i1, ptr %2, align 1
  ret i1 %16
}

; Function Attrs: inlinehint nounwind sspstrong willreturn memory(none) uwtable
define internal zeroext i1 @RB_NIL_P(i64 noundef %0) #8 {
  %2 = alloca i64, align 8
  store i64 %0, ptr %2, align 8, !tbaa !26
  %3 = load i64, ptr %2, align 8, !tbaa !26
  %4 = icmp eq i64 %3, 4
  ret i1 %4
}

; Function Attrs: inlinehint nounwind sspstrong uwtable
define internal i64 @rb_float_new_inline(double noundef %0) #4 {
  %2 = alloca i64, align 8
  %3 = alloca double, align 8
  %4 = alloca %union.anon.22, align 8
  %5 = alloca i32, align 4
  %6 = alloca i32, align 4
  store double %0, ptr %3, align 8, !tbaa !47
  call void @llvm.lifetime.start.p0(i64 8, ptr %4) #24
  call void @llvm.lifetime.start.p0(i64 4, ptr %5) #24
  %7 = load double, ptr %3, align 8, !tbaa !47
  store double %7, ptr %4, align 8, !tbaa !50
  %8 = load i64, ptr %4, align 8, !tbaa !50
  %9 = lshr i64 %8, 60
  %10 = and i64 %9, 7
  %11 = trunc i64 %10 to i32
  store i32 %11, ptr %5, align 4, !tbaa !19
  %12 = load i64, ptr %4, align 8, !tbaa !50
  %13 = icmp ne i64 %12, 3458764513820540928
  br i1 %13, label %14, label %24

14:                                               ; preds = %1
  %15 = load i32, ptr %5, align 4, !tbaa !19
  %16 = sub i32 %15, 3
  %17 = and i32 %16, -2
  %18 = icmp ne i32 %17, 0
  br i1 %18, label %24, label %19

19:                                               ; preds = %14
  %20 = load i64, ptr %4, align 8, !tbaa !50
  %21 = call i64 @RUBY_BIT_ROTL(i64 noundef %20, i32 noundef 3)
  %22 = and i64 %21, -2
  %23 = or i64 %22, 2
  store i64 %23, ptr %2, align 8
  store i32 1, ptr %6, align 4
  br label %32

24:                                               ; preds = %14, %1
  %25 = load i64, ptr %4, align 8, !tbaa !50
  %26 = icmp eq i64 %25, 0
  br i1 %26, label %27, label %28

27:                                               ; preds = %24
  store i64 -9223372036854775806, ptr %2, align 8
  store i32 1, ptr %6, align 4
  br label %32

28:                                               ; preds = %24
  br label %29

29:                                               ; preds = %28
  %30 = load double, ptr %3, align 8, !tbaa !47
  %31 = call i64 @rb_float_new_in_heap(double noundef %30)
  store i64 %31, ptr %2, align 8
  store i32 1, ptr %6, align 4
  br label %32

32:                                               ; preds = %29, %27, %19
  call void @llvm.lifetime.end.p0(i64 4, ptr %5) #24
  call void @llvm.lifetime.end.p0(i64 8, ptr %4) #24
  %33 = load i64, ptr %2, align 8
  ret i64 %33
}

; Function Attrs: inlinehint nounwind sspstrong uwtable
define internal i32 @rb_check_arity(i32 noundef %0, i32 noundef %1, i32 noundef %2) #4 {
  %4 = alloca i32, align 4
  %5 = alloca i32, align 4
  %6 = alloca i32, align 4
  store i32 %0, ptr %4, align 4, !tbaa !19
  store i32 %1, ptr %5, align 4, !tbaa !19
  store i32 %2, ptr %6, align 4, !tbaa !19
  %7 = load i32, ptr %4, align 4, !tbaa !19
  %8 = load i32, ptr %5, align 4, !tbaa !19
  %9 = icmp slt i32 %7, %8
  br i1 %9, label %17, label %10

10:                                               ; preds = %3
  %11 = load i32, ptr %6, align 4, !tbaa !19
  %12 = icmp ne i32 %11, -1
  br i1 %12, label %13, label %21

13:                                               ; preds = %10
  %14 = load i32, ptr %4, align 4, !tbaa !19
  %15 = load i32, ptr %6, align 4, !tbaa !19
  %16 = icmp sgt i32 %14, %15
  br i1 %16, label %17, label %21

17:                                               ; preds = %13, %3
  %18 = load i32, ptr %4, align 4, !tbaa !19
  %19 = load i32, ptr %5, align 4, !tbaa !19
  %20 = load i32, ptr %6, align 4, !tbaa !19
  call void @rb_error_arity(i32 noundef %18, i32 noundef %19, i32 noundef %20) #27
  unreachable

21:                                               ; preds = %13, %10
  %22 = load i32, ptr %4, align 4, !tbaa !19
  ret i32 %22
}

; Function Attrs: nounwind sspstrong uwtable
define internal i64 @rand_random(i32 noundef %0, ptr noundef %1, i64 noundef %2, ptr noundef %3) #0 {
  %5 = alloca i64, align 8
  %6 = alloca i32, align 4
  %7 = alloca ptr, align 8
  %8 = alloca i64, align 8
  %9 = alloca ptr, align 8
  %10 = alloca i64, align 8
  %11 = alloca i64, align 8
  %12 = alloca i32, align 4
  %13 = alloca double, align 8
  %14 = alloca double, align 8
  store i32 %0, ptr %6, align 4, !tbaa !19
  store ptr %1, ptr %7, align 8, !tbaa !55
  store i64 %2, ptr %8, align 8, !tbaa !26
  store ptr %3, ptr %9, align 8, !tbaa !24
  call void @llvm.lifetime.start.p0(i64 8, ptr %10) #24
  call void @llvm.lifetime.start.p0(i64 8, ptr %11) #24
  %15 = load i32, ptr %6, align 4, !tbaa !19
  %16 = call i32 @rb_check_arity(i32 noundef %15, i32 noundef 0, i32 noundef 1)
  %17 = icmp eq i32 %16, 0
  br i1 %17, label %18, label %23

18:                                               ; preds = %4
  %19 = load i64, ptr %8, align 8, !tbaa !26
  %20 = load ptr, ptr %9, align 8, !tbaa !24
  %21 = call double @random_real(i64 noundef %19, ptr noundef %20, i32 noundef 1)
  %22 = call i64 @rb_float_new_inline(double noundef %21)
  store i64 %22, ptr %5, align 8
  store i32 1, ptr %12, align 4
  br label %74

23:                                               ; preds = %4
  %24 = load ptr, ptr %7, align 8, !tbaa !55
  %25 = getelementptr i64, ptr %24, i64 0
  %26 = load i64, ptr %25, align 8, !tbaa !26
  store i64 %26, ptr %10, align 8, !tbaa !26
  %27 = load i64, ptr %10, align 8, !tbaa !26
  %28 = call zeroext i1 @RB_NIL_P(i64 noundef %27) #28
  br i1 %28, label %29, label %30

29:                                               ; preds = %23
  store i64 4, ptr %5, align 8
  store i32 1, ptr %12, align 4
  br label %74

30:                                               ; preds = %23
  %31 = load i64, ptr %10, align 8, !tbaa !26
  %32 = call zeroext i1 @RB_FLOAT_TYPE_P(i64 noundef %31) #26
  br i1 %32, label %44, label %33

33:                                               ; preds = %30
  %34 = load i64, ptr %10, align 8, !tbaa !26
  %35 = call i64 @rb_check_to_int(i64 noundef %34)
  store i64 %35, ptr %11, align 8, !tbaa !26
  %36 = load i64, ptr %11, align 8, !tbaa !26
  %37 = call zeroext i1 @RB_NIL_P(i64 noundef %36) #28
  br i1 %37, label %43, label %38

38:                                               ; preds = %33
  %39 = load i64, ptr %8, align 8, !tbaa !26
  %40 = load ptr, ptr %9, align 8, !tbaa !24
  %41 = load i64, ptr %11, align 8, !tbaa !26
  %42 = call i64 @rand_int(i64 noundef %39, ptr noundef %40, i64 noundef %41, i32 noundef 1)
  store i64 %42, ptr %5, align 8
  store i32 1, ptr %12, align 4
  br label %74

43:                                               ; preds = %33
  br label %44

44:                                               ; preds = %43, %30
  %45 = load i64, ptr %10, align 8, !tbaa !26
  %46 = call i64 @rb_check_to_float(i64 noundef %45)
  store i64 %46, ptr %11, align 8, !tbaa !26
  %47 = load i64, ptr %11, align 8, !tbaa !26
  %48 = call zeroext i1 @RB_NIL_P(i64 noundef %47) #28
  br i1 %48, label %69, label %49

49:                                               ; preds = %44
  call void @llvm.lifetime.start.p0(i64 8, ptr %13) #24
  %50 = load i64, ptr %11, align 8, !tbaa !26
  %51 = call double @float_value(i64 noundef %50)
  store double %51, ptr %13, align 8, !tbaa !47
  %52 = load double, ptr %13, align 8, !tbaa !47
  %53 = fcmp olt double %52, 0.000000e+00
  br i1 %53, label %54, label %55

54:                                               ; preds = %49
  store i64 4, ptr %5, align 8
  store i32 1, ptr %12, align 4
  br label %68

55:                                               ; preds = %49
  call void @llvm.lifetime.start.p0(i64 8, ptr %14) #24
  %56 = load i64, ptr %8, align 8, !tbaa !26
  %57 = load ptr, ptr %9, align 8, !tbaa !24
  %58 = call double @random_real(i64 noundef %56, ptr noundef %57, i32 noundef 1)
  store double %58, ptr %14, align 8, !tbaa !47
  %59 = load double, ptr %13, align 8, !tbaa !47
  %60 = fcmp ogt double %59, 0.000000e+00
  br i1 %60, label %61, label %65

61:                                               ; preds = %55
  %62 = load double, ptr %13, align 8, !tbaa !47
  %63 = load double, ptr %14, align 8, !tbaa !47
  %64 = fmul double %63, %62
  store double %64, ptr %14, align 8, !tbaa !47
  br label %65

65:                                               ; preds = %61, %55
  %66 = load double, ptr %14, align 8, !tbaa !47
  %67 = call i64 @rb_float_new_inline(double noundef %66)
  store i64 %67, ptr %5, align 8
  store i32 1, ptr %12, align 4
  call void @llvm.lifetime.end.p0(i64 8, ptr %14) #24
  br label %68

68:                                               ; preds = %65, %54
  call void @llvm.lifetime.end.p0(i64 8, ptr %13) #24
  br label %74

69:                                               ; preds = %44
  %70 = load i64, ptr %8, align 8, !tbaa !26
  %71 = load ptr, ptr %9, align 8, !tbaa !24
  %72 = load i64, ptr %10, align 8, !tbaa !26
  %73 = call i64 @rand_range(i64 noundef %70, ptr noundef %71, i64 noundef %72)
  store i64 %73, ptr %5, align 8
  store i32 1, ptr %12, align 4
  br label %74

74:                                               ; preds = %69, %68, %38, %29, %18
  call void @llvm.lifetime.end.p0(i64 8, ptr %11) #24
  call void @llvm.lifetime.end.p0(i64 8, ptr %10) #24
  %75 = load i64, ptr %5, align 8
  ret i64 %75
}