; Function Attrs: nounwind sspstrong uwtable
define internal fastcc i64 @rand_random(i32 noundef %0, ptr noundef readonly captures(none) %1, i64 noundef %2, ptr noundef %3) unnamed_addr #0 {
  %or.cond.i = icmp ugt i32 %0, 1
  br i1 %or.cond.i, label %5, label %rb_check_arity.exit

5:                                                ; preds = %4
  tail call void @rb_error_arity(i32 noundef %0, i32 noundef 0, i32 noundef 1) #25
  unreachable

rb_check_arity.exit:                              ; preds = %4
  %6 = icmp eq i32 %0, 0
  br i1 %6, label %7, label %23

7:                                                ; preds = %rb_check_arity.exit
  %8 = tail call fastcc double @random_real(i64 noundef %2, ptr noundef %3, i32 noundef 1)
  %9 = bitcast double %8 to i64
  %cond.i = icmp eq i64 %9, 3458764513820540928
  br i1 %cond.i, label %21, label %10

10:                                               ; preds = %7
  %11 = lshr i64 %9, 60
  %12 = trunc nuw nsw i64 %11 to i32
  %13 = and i32 %12, 7
  %14 = add nsw i32 %13, -3
  %.not7.i = icmp ult i32 %14, 2
  br i1 %.not7.i, label %15, label %19

15:                                               ; preds = %10
  %16 = tail call noundef i64 @llvm.fshl.i64(i64 range(i64 3458764513820540929, 3458764513820540928) %9, i64 range(i64 3458764513820540929, 3458764513820540928) %9, i64 3)
  %17 = and i64 %16, -4
  %18 = or disjoint i64 %17, 2
  br label %rb_float_new_inline.exit

19:                                               ; preds = %10
  %20 = icmp eq i64 %9, 0
  br i1 %20, label %rb_float_new_inline.exit, label %21

21:                                               ; preds = %19, %7
  %22 = tail call i64 @rb_float_new_in_heap(double noundef %8) #23
  br label %rb_float_new_inline.exit

23:                                               ; preds = %rb_check_arity.exit
  %24 = load i64, ptr %1, align 8, !tbaa !43
  %25 = icmp eq i64 %24, 4
  br i1 %25, label %rb_float_new_inline.exit, label %26

26:                                               ; preds = %23
  %27 = and i64 %24, 3
  %28 = icmp eq i64 %27, 2
  br i1 %28, label %RB_FLOAT_TYPE_P.exit.thread, label %29

29:                                               ; preds = %26
  %30 = icmp eq i64 %24, 0
  %31 = and i64 %24, 7
  %32 = icmp ne i64 %31, 0
  %33 = or i1 %30, %32
  br i1 %33, label %RB_FLOAT_TYPE_P.exit.thread32, label %RB_FLOAT_TYPE_P.exit

RB_FLOAT_TYPE_P.exit:                             ; preds = %29
  %34 = inttoptr i64 %24 to ptr
  %35 = load i64, ptr %34, align 8, !tbaa !48
  %36 = and i64 %35, 31
  %37 = icmp eq i64 %36, 4
  br i1 %37, label %RB_FLOAT_TYPE_P.exit.thread, label %RB_FLOAT_TYPE_P.exit.thread32

RB_FLOAT_TYPE_P.exit.thread32:                    ; preds = %29, %RB_FLOAT_TYPE_P.exit
  %38 = tail call i64 @rb_check_to_int(i64 noundef %24) #23
  %39 = icmp eq i64 %38, 4
  br i1 %39, label %RB_FLOAT_TYPE_P.exit.thread, label %40

40:                                               ; preds = %RB_FLOAT_TYPE_P.exit.thread32
  %41 = tail call fastcc i64 @rand_int(i64 noundef %2, ptr noundef %3, i64 noundef %38, i32 noundef 1)
  br label %rb_float_new_inline.exit

RB_FLOAT_TYPE_P.exit.thread:                      ; preds = %26, %RB_FLOAT_TYPE_P.exit.thread32, %RB_FLOAT_TYPE_P.exit
  %42 = tail call i64 @rb_check_to_float(i64 noundef %24) #23
  %43 = icmp eq i64 %42, 4
  br i1 %43, label %79, label %44

44:                                               ; preds = %RB_FLOAT_TYPE_P.exit.thread
  %45 = and i64 %42, 3
  %46 = icmp eq i64 %45, 2
  br i1 %46, label %47, label %54

47:                                               ; preds = %44
  %.not.i.i.i = icmp eq i64 %42, -9223372036854775806
  br i1 %.not.i.i.i, label %float_value.exit.thread, label %48

48:                                               ; preds = %47
  %.neg.i.i.i = ashr i64 %42, 63
  %49 = add nsw i64 %.neg.i.i.i, 2
  %50 = and i64 %42, -4
  %51 = or i64 %49, %50
  %52 = tail call noundef i64 @llvm.fshl.i64(i64 range(i64 1, 0) %51, i64 range(i64 1, 0) %51, i64 61)
  %53 = bitcast i64 %52 to double
  br label %rb_float_value_inline.exit.i

54:                                               ; preds = %44
  %55 = inttoptr i64 %42 to ptr
  %56 = getelementptr inbounds nuw i8, ptr %55, i64 16
  %57 = load double, ptr %56, align 8, !tbaa !91
  br label %rb_float_value_inline.exit.i

rb_float_value_inline.exit.i:                     ; preds = %54, %48
  %.0.i.i = phi double [ %57, %54 ], [ %53, %48 ]
  %58 = tail call double @llvm.fabs.f64(double %.0.i.i)
  %59 = fcmp ueq double %58, 0x7FF0000000000000
  br i1 %59, label %60, label %float_value.exit

60:                                               ; preds = %rb_float_value_inline.exit.i
  tail call fastcc void @domain_error() #27
  unreachable

float_value.exit:                                 ; preds = %rb_float_value_inline.exit.i
  %61 = fcmp olt double %.0.i.i, 0.000000e+00
  br i1 %61, label %rb_float_new_inline.exit, label %float_value.exit.thread

float_value.exit.thread:                          ; preds = %47, %float_value.exit
  %.0.i.i3537 = phi double [ %.0.i.i, %float_value.exit ], [ 0.000000e+00, %47 ]
  %62 = tail call fastcc double @random_real(i64 noundef %2, ptr noundef %3, i32 noundef 1)
  %63 = fcmp ogt double %.0.i.i3537, 0.000000e+00
  %64 = fmul double %.0.i.i3537, %62
  %.0 = select i1 %63, double %64, double %62
  %65 = bitcast double %.0 to i64
  %cond.i27 = icmp eq i64 %65, 3458764513820540928
  br i1 %cond.i27, label %77, label %66

66:                                               ; preds = %float_value.exit.thread
  %67 = lshr i64 %65, 60
  %68 = trunc nuw nsw i64 %67 to i32
  %69 = and i32 %68, 7
  %70 = add nsw i32 %69, -3
  %.not7.i28 = icmp ult i32 %70, 2
  br i1 %.not7.i28, label %71, label %75

71:                                               ; preds = %66
  %72 = tail call noundef i64 @llvm.fshl.i64(i64 range(i64 3458764513820540929, 3458764513820540928) %65, i64 range(i64 3458764513820540929, 3458764513820540928) %65, i64 3)
  %73 = and i64 %72, -4
  %74 = or disjoint i64 %73, 2
  br label %rb_float_new_inline.exit

75:                                               ; preds = %66
  %76 = icmp eq i64 %65, 0
  br i1 %76, label %rb_float_new_inline.exit, label %77

77:                                               ; preds = %75, %float_value.exit.thread
  %78 = tail call i64 @rb_float_new_in_heap(double noundef %.0) #23
  br label %rb_float_new_inline.exit

79:                                               ; preds = %RB_FLOAT_TYPE_P.exit.thread
  %80 = tail call fastcc i64 @rand_range(i64 noundef %2, ptr noundef %3, i64 noundef %24)
  br label %rb_float_new_inline.exit

rb_float_new_inline.exit:                         ; preds = %77, %75, %71, %21, %19, %15, %float_value.exit, %23, %79, %40
  %.024 = phi i64 [ %80, %79 ], [ %41, %40 ], [ 4, %23 ], [ 4, %float_value.exit ], [ %22, %21 ], [ %18, %15 ], [ -9223372036854775806, %19 ], [ %78, %77 ], [ %74, %71 ], [ -9223372036854775806, %75 ]
  ret i64 %.024
}